; Function Attrs: mustprogress uwtable
define internal noundef nonnull ptr @_ZNK7testing8internal26CartesianProductGenerator2IN2cv5Size_IiEEN11opencv_test12_GLOBAL__N_18CvtMode2EE3EndEv(ptr noundef nonnull align 8 dereferenceable(40) %0) unnamed_addr #4 align 2 personality ptr @__gxx_personality_v0 {
  %2 = alloca %"class.testing::internal::ParamIterator", align 8
  %3 = alloca %"class.testing::internal::ParamIterator.273", align 8
  %4 = tail call noalias noundef nonnull dereferenceable(80) ptr @_Znwm(i64 noundef 80) #31
  %5 = getelementptr inbounds nuw i8, ptr %0, i64 8
  call void @llvm.lifetime.start.p0(i64 8, ptr nonnull %2) #30
  tail call void @llvm.experimental.noalias.scope.decl(metadata !761)
  %6 = load ptr, ptr %5, align 8, !tbaa !116, !noalias !761
  %7 = load ptr, ptr %6, align 8, !tbaa !19, !noalias !761
  %8 = getelementptr inbounds nuw i8, ptr %7, i64 24
  %9 = load ptr, ptr %8, align 8, !noalias !761
  %10 = invoke noundef ptr %9(ptr noundef nonnull align 8 dereferenceable(8) %6)
          to label %11 unwind label %37

11:                                               ; preds = %1
  store ptr %10, ptr %2, align 8, !tbaa !575, !alias.scope !761
  %12 = getelementptr inbounds nuw i8, ptr %0, i64 24
  call void @llvm.lifetime.start.p0(i64 8, ptr nonnull %3) #30
  %.val = load ptr, ptr %12, align 8, !tbaa !365
  tail call void @llvm.experimental.noalias.scope.decl(metadata !764)
  %13 = load ptr, ptr %.val, align 8, !tbaa !19, !noalias !764
  %14 = getelementptr inbounds nuw i8, ptr %13, i64 24
  %15 = load ptr, ptr %14, align 8, !noalias !764
  %16 = invoke noundef ptr %15(ptr noundef nonnull align 8 dereferenceable(8) %.val)
          to label %17 unwind label %39

17:                                               ; preds = %11
  store ptr %16, ptr %3, align 8, !tbaa !758, !alias.scope !764
  invoke fastcc void @_ZN7testing8internal26CartesianProductGenerator2IN2cv5Size_IiEEN11opencv_test12_GLOBAL__N_18CvtMode2EE8IteratorC2EPKNS0_23ParamGeneratorInterfaceISt5tupleIJS4_S7_EEEERKNS0_14ParamGeneratorIS4_EERKNS0_13ParamIteratorIS4_EERKNSG_IS7_EERKNSK_IS7_EE(ptr noundef nonnull align 8 dereferenceable(80) %4, ptr noundef %0, ptr noundef nonnull align 8 dereferenceable(16) %5, ptr noundef nonnull align 8 dereferenceable(8) %2, ptr noundef nonnull align 8 dereferenceable(16) %12, ptr %16)
          to label %18 unwind label %41

18:                                               ; preds = %17
  %.not.i.i.i = icmp eq ptr %16, null
  br i1 %.not.i.i.i, label %_ZN7testing8internal13ParamIteratorIN11opencv_test12_GLOBAL__N_18CvtMode2EED2Ev.exit, label %19

19:                                               ; preds = %18
  %20 = invoke noundef zeroext i1 @_ZN7testing8internal6IsTrueEb(i1 noundef zeroext true)
          to label %.noexc.i.i unwind label %25

.noexc.i.i:                                       ; preds = %19
  br i1 %20, label %21, label %_ZN7testing8internal13ParamIteratorIN11opencv_test12_GLOBAL__N_18CvtMode2EED2Ev.exit

21:                                               ; preds = %.noexc.i.i
  %22 = load ptr, ptr %16, align 8, !tbaa !19
  %23 = getelementptr inbounds nuw i8, ptr %22, i64 8
  %24 = load ptr, ptr %23, align 8
  tail call void %24(ptr noundef nonnull align 8 dereferenceable(8) %16) #30
  br label %_ZN7testing8internal13ParamIteratorIN11opencv_test12_GLOBAL__N_18CvtMode2EED2Ev.exit

25:                                               ; preds = %19
  %26 = landingpad { ptr, i32 }
          catch ptr null
  %27 = extractvalue { ptr, i32 } %26, 0
  tail call void @__clang_call_terminate(ptr %27) #32
  unreachable

_ZN7testing8internal13ParamIteratorIN11opencv_test12_GLOBAL__N_18CvtMode2EED2Ev.exit: ; preds = %.noexc.i.i, %21, %18
  call void @llvm.lifetime.end.p0(i64 8, ptr nonnull %3) #30
  %.not.i.i.i8 = icmp eq ptr %10, null
  br i1 %.not.i.i.i8, label %_ZN7testing8internal13ParamIteratorIN2cv5Size_IiEEED2Ev.exit, label %28

28:                                               ; preds = %_ZN7testing8internal13ParamIteratorIN11opencv_test12_GLOBAL__N_18CvtMode2EED2Ev.exit
  %29 = invoke noundef zeroext i1 @_ZN7testing8internal6IsTrueEb(i1 noundef zeroext true)
          to label %.noexc.i.i9 unwind label %34

.noexc.i.i9:                                      ; preds = %28
  br i1 %29, label %30, label %_ZN7testing8internal13ParamIteratorIN2cv5Size_IiEEED2Ev.exit

30:                                               ; preds = %.noexc.i.i9
  %31 = load ptr, ptr %10, align 8, !tbaa !19
  %32 = getelementptr inbounds nuw i8, ptr %31, i64 8
  %33 = load ptr, ptr %32, align 8
  tail call void %33(ptr noundef nonnull align 8 dereferenceable(8) %10) #30
  br label %_ZN7testing8internal13ParamIteratorIN2cv5Size_IiEEED2Ev.exit

34:                                               ; preds = %28
  %35 = landingpad { ptr, i32 }
          catch ptr null
  %36 = extractvalue { ptr, i32 } %35, 0
  tail call void @__clang_call_terminate(ptr %36) #32
  unreachable

_ZN7testing8internal13ParamIteratorIN2cv5Size_IiEEED2Ev.exit: ; preds = %.noexc.i.i9, %30, %_ZN7testing8internal13ParamIteratorIN11opencv_test12_GLOBAL__N_18CvtMode2EED2Ev.exit
  call void @llvm.lifetime.end.p0(i64 8, ptr nonnull %2) #30
  ret ptr %4

37:                                               ; preds = %1
  %38 = landingpad { ptr, i32 }
          cleanup
  br label %44

39:                                               ; preds = %11
  %40 = landingpad { ptr, i32 }
          cleanup
  br label %43

41:                                               ; preds = %17
  %42 = landingpad { ptr, i32 }
          cleanup
  call fastcc void @_ZN7testing8internal13ParamIteratorIN11opencv_test12_GLOBAL__N_18CvtMode2EED2Ev(ptr noundef nonnull align 8 dereferenceable(8) %3) #30
  br label %43

43:                                               ; preds = %41, %39
  %.pn = phi { ptr, i32 } [ %42, %41 ], [ %40, %39 ]
  call void @llvm.lifetime.end.p0(i64 8, ptr nonnull %3) #30
  call void @_ZN7testing8internal13ParamIteratorIN2cv5Size_IiEEED2Ev(ptr noundef nonnull align 8 dereferenceable(8) %2) #30
  br label %44

44:                                               ; preds = %43, %37
  %.pn.pn = phi { ptr, i32 } [ %.pn, %43 ], [ %38, %37 ]
  call void @llvm.lifetime.end.p0(i64 8, ptr nonnull %2) #30
  call void @_ZdlPv(ptr noundef nonnull %4) #33
  resume { ptr, i32 } %.pn.pn
}